; Function Attrs: mustprogress uwtable
define void @_ZNK6casadi6Switch20codegen_declarationsERNS_13CodeGeneratorE(ptr noundef nonnull align 8 dereferenceable(1346) %0, ptr noundef nonnull align 8 dereferenceable(3289) %1) unnamed_addr #3 align 2 personality ptr @__gxx_personality_v0 {
  %3 = alloca %"class.std::__cxx11::basic_string", align 8
  %4 = getelementptr inbounds nuw i8, ptr %0, i64 1312
  %5 = getelementptr inbounds nuw i8, ptr %0, i64 1320
  %6 = getelementptr inbounds nuw i8, ptr %0, i64 1336
  %7 = load ptr, ptr %5, align 8, !tbaa !23
  %8 = load ptr, ptr %4, align 8, !tbaa !25
  %9 = ptrtoint ptr %7 to i64
  %10 = ptrtoint ptr %8 to i64
  %11 = sub i64 %9, %10
  %12 = ashr exact i64 %11, 3
  %13 = getelementptr inbounds nuw i8, ptr %3, i64 16
  %14 = getelementptr inbounds nuw i8, ptr %3, i64 8
  br label %16

15:                                               ; preds = %_ZNSt7__cxx1112basic_stringIcSt11char_traitsIcESaIcEED2Ev.exit
  ret void

16:                                               ; preds = %2, %_ZNSt7__cxx1112basic_stringIcSt11char_traitsIcESaIcEED2Ev.exit
  %17 = phi i64 [ %12, %2 ], [ %34, %_ZNSt7__cxx1112basic_stringIcSt11char_traitsIcESaIcEED2Ev.exit ]
  %18 = phi ptr [ %8, %2 ], [ %30, %_ZNSt7__cxx1112basic_stringIcSt11char_traitsIcESaIcEED2Ev.exit ]
  %.06 = phi i64 [ 0, %2 ], [ %28, %_ZNSt7__cxx1112basic_stringIcSt11char_traitsIcESaIcEED2Ev.exit ]
  %19 = icmp ult i64 %.06, %17
  %20 = getelementptr inbounds nuw %"class.casadi::Function", ptr %18, i64 %.06
  %21 = select i1 %19, ptr %20, ptr %6
  call void @_ZN6casadi13CodeGenerator14add_dependencyB5cxx11ERKNS_8FunctionE(ptr dead_on_unwind nonnull writable sret(%"class.std::__cxx11::basic_string") align 8 %3, ptr noundef nonnull align 8 dereferenceable(3289) %1, ptr noundef nonnull align 8 dereferenceable(8) %21)
  %22 = load ptr, ptr %3, align 8, !tbaa !16
  %23 = icmp eq ptr %22, %13
  br i1 %23, label %_ZNKSt7__cxx1112basic_stringIcSt11char_traitsIcESaIcEE11_M_is_localEv.exit.thread.i.i, label %_ZNKSt7__cxx1112basic_stringIcSt11char_traitsIcESaIcEE11_M_is_localEv.exit.i.i

_ZNKSt7__cxx1112basic_stringIcSt11char_traitsIcESaIcEE11_M_is_localEv.exit.thread.i.i: ; preds = %16
  %24 = load i64, ptr %14, align 8, !tbaa !21
  %25 = icmp ult i64 %24, 16
  call void @llvm.assume(i1 %25)
  br label %_ZNSt7__cxx1112basic_stringIcSt11char_traitsIcESaIcEED2Ev.exit

_ZNKSt7__cxx1112basic_stringIcSt11char_traitsIcESaIcEE11_M_is_localEv.exit.i.i: ; preds = %16
  %26 = load i64, ptr %13, align 8, !tbaa !22
  %27 = add i64 %26, 1
  call void @_ZdlPvm(ptr noundef %22, i64 noundef %27) #25
  br label %_ZNSt7__cxx1112basic_stringIcSt11char_traitsIcESaIcEED2Ev.exit

_ZNSt7__cxx1112basic_stringIcSt11char_traitsIcESaIcEED2Ev.exit: ; preds = %_ZNKSt7__cxx1112basic_stringIcSt11char_traitsIcESaIcEE11_M_is_localEv.exit.thread.i.i, %_ZNKSt7__cxx1112basic_stringIcSt11char_traitsIcESaIcEE11_M_is_localEv.exit.i.i
  %28 = add nuw nsw i64 %.06, 1
  %29 = load ptr, ptr %5, align 8, !tbaa !23
  %30 = load ptr, ptr %4, align 8, !tbaa !25
  %31 = ptrtoint ptr %29 to i64
  %32 = ptrtoint ptr %30 to i64
  %33 = sub i64 %31, %32
  %34 = ashr exact i64 %33, 3
  %.not.not = icmp ult i64 %.06, %34
  br i1 %.not.not, label %16, label %15, !llvm.loop !185
}